target datalayout = "e-m:e-p270:32:32-p271:32:32-p272:64:64-i64:64-i128:128-f80:128-n8:16:32:64-S128"
target triple = "x86_64-pc-linux-gnu"

; Function Attrs: mustprogress nounwind uwtable
define hidden noundef zeroext i1 @_ZN12smt_renaming8is_legalEc(ptr noundef nonnull align 8 dereferenceable(48) %0, i8 noundef signext %1) #6 align 2 {
  %3 = alloca ptr, align 8
  %4 = alloca i8, align 1
  store ptr %0, ptr %3, align 8, !tbaa !3
  store i8 %1, ptr %4, align 1, !tbaa !12
  %5 = load i8, ptr %4, align 1, !tbaa !12
  %6 = sext i8 %5 to i32
  %7 = icmp eq i32 %6, 46
  br i1 %7, label %29, label %8

8:                                                ; preds = %2
  %9 = load i8, ptr %4, align 1, !tbaa !12
  %10 = sext i8 %9 to i32
  %11 = icmp eq i32 %10, 95
  br i1 %11, label %29, label %12

12:                                               ; preds = %8
  %13 = load i8, ptr %4, align 1, !tbaa !12
  %14 = sext i8 %13 to i32
  %15 = icmp eq i32 %14, 39
  br i1 %15, label %29, label %16

16:                                               ; preds = %12
  %17 = load i8, ptr %4, align 1, !tbaa !12
  %18 = sext i8 %17 to i32
  %19 = icmp eq i32 %18, 63
  br i1 %19, label %29, label %20

20:                                               ; preds = %16
  %21 = load i8, ptr %4, align 1, !tbaa !12
  %22 = sext i8 %21 to i32
  %23 = icmp eq i32 %22, 33
  br i1 %23, label %29, label %24

24:                                               ; preds = %20
  %25 = load i8, ptr %4, align 1, !tbaa !12
  %26 = sext i8 %25 to i32
  %27 = call i32 @isalnum(i32 noundef %26) #21
  %28 = icmp ne i32 %27, 0
  br label %29

29:                                               ; preds = %24, %20, %16, %12, %8, %2
  %30 = phi i1 [ true, %20 ], [ true, %16 ], [ true, %12 ], [ true, %8 ], [ true, %2 ], [ %28, %24 ]
  ret i1 %30
}