; Function Attrs: mustprogress nofree nounwind willreturn memory(read) uwtable
define hidden noundef zeroext i1 @_ZN12smt_renaming8is_legalEc(ptr noundef nonnull readnone align 8 captures(none) dereferenceable(48) %0, i8 noundef signext %1) local_unnamed_addr #7 align 2 {
  %switch.tableidx = add i8 %1, -33
  %3 = icmp ult i8 %switch.tableidx, 63
  br i1 %3, label %switch.hole_check, label %4

4:                                                ; preds = %switch.hole_check, %2
  %5 = sext i8 %1 to i32
  %6 = tail call i32 @isalnum(i32 noundef %5) #25
  %7 = icmp ne i32 %6, 0
  br label %switch.lookup

switch.hole_check:                                ; preds = %2
  %switch.maskindex = zext nneg i8 %switch.tableidx to i64
  %switch.shifted = lshr i64 4611686019501137985, %switch.maskindex
  %switch.lobit = trunc i64 %switch.shifted to i1
  br i1 %switch.lobit, label %switch.lookup, label %4

switch.lookup:                                    ; preds = %switch.hole_check, %4
  %8 = phi i1 [ %7, %4 ], [ true, %switch.hole_check ]
  ret i1 %8
}